Certificate:
    Data:
        Version: 3 (0x2)
        Serial Number: 4096 (0x1000)
    Signature Algorithm: sha1WithRSAEncryption
        Issuer: C=US, O=baplc.com, CN=rhevengine.baplc.com.33863
        Validity
            Not Before: Nov 25 13:50:36 2013
            Not After : Nov 24 13:50:36 2023 GMT
        Subject: C=US, O=baplc.com, CN=rhevengine.baplc.com.33863
        Subject Public Key Info:
            Public Key Algorithm: rsaEncryption
                Public-Key: (2048 bit)
                Modulus:
                    00:93:7f:df:a1:0b:8e:48:48:c9:c4:14:ab:fb:04:
                    87:61:44:fc:4d:69:82:07:27:58:01:36:30:21:48:
                    f4:6b:df:35:00:b2:55:d3:98:e9:8f:c8:2a:e8:98:
                    70:00:9b:3f:c6:67:75:07:3f:7b:20:93:c0:15:0e:
                    92:d2:eb:c9:c3:ff:dc:e4:33:e7:79:eb:a9:2e:42:
                    bc:46:50:e4:ab:cb:11:b1:11:d5:35:84:5a:ab:46:
                    f3:29:91:16:16:9e:ad:84:f3:68:7f:6d:4f:d6:60:
                    45:83:7c:f5:73:f6:52:c5:21:07:2b:a4:bf:94:ef:
                    16:31:db:56:43:f0:e4:59:fb:bd:af:f3:8c:a2:86:
                    f3:0c:a3:10:d7:18:ab:98:9c:98:ae:de:e5:5a:33:
                    5e:cb:7c:e4:c2:6c:72:71:d7:b6:2c:92:22:54:d7:
                    40:e1:fb:ac:c6:88:63:d2:f1:d3:00:71:2a:5f:cd:
                    75:39:dd:36:53:21:c1:00:ee:f9:d3:0e:cc:a0:2c:
                    8c:a5:17:70:23:11:65:81:e7:1b:42:a0:d4:cb:0c:
                    6e:36:0a:cf:cd:76:7a:a3:c8:43:5f:06:cf:db:b4:
                    ca:f3:88:1f:0d:56:e2:7e:ca:3a:c7:db:ad:a3:05:
                    fe:9d:11:35:db:58:78:6f:c2:17:64:93:82:76:72:
                    cd:57
                Exponent: 65537 (0x10001)
        X509v3 extensions:
            X509v3 Subject Key Identifier:
                AC:3C:25:25:D1:90:02:13:23:42:9B:20:99:5E:0F:D8:60:65:44:DA
            X509v3 Authority Key Identifier:
                keyid:AC:3C:25:25:D1:90:02:13:23:42:9B:20:99:5E:0F:D8:60:65:44:DA
                DirName:/C=US/O=baplc.com/CN=rhevengine.baplc.com.33863
                serial:10:00

            X509v3 Basic Constraints: critical
                CA:TRUE
            X509v3 Key Usage: critical
                Certificate Sign, CRL Sign
    Signature Algorithm: sha1WithRSAEncryption
         3b:e9:21:df:1a:10:7a:36:66:10:62:2e:2c:20:d4:67:aa:dc:
         ea:d8:62:ff:e8:e4:ac:ae:a1:ed:0b:b7:23:c1:69:d3:4c:a3:
         51:51:b0:5b:d2:e1:81:fb:f4:0a:f7:3f:27:d2:48:d1:a3:4f:
         d9:c9:1c:27:26:0e:16:f1:76:6f:89:d2:d6:9b:3f:f3:8c:50:
         84:24:3c:b4:e5:5b:7f:18:81:dd:50:1c:1f:a1:3b:96:0f:af:
         be:55:d4:5b:e2:78:19:34:9e:8f:a4:14:8f:56:55:7f:7e:e5:
         f5:23:d0:9c:ae:27:7d:25:54:70:74:61:a0:24:52:51:99:e0:
         49:4c:0e:33:2f:05:89:a6:8d:43:46:3b:aa:8b:40:9f:68:15:
         8f:96:95:81:fd:74:b3:76:f7:f6:51:9f:04:ce:93:e6:d5:55:
         e3:41:cc:08:bb:42:71:78:7d:2c:cd:5f:d1:14:ef:39:b1:27:
         3e:22:d8:3f:6a:7c:f8:87:4a:01:2b:0b:1e:36:ad:5a:d8:c0:
         c5:9c:76:1e:bd:df:ff:4c:84:de:72:14:9d:52:84:79:e2:67:
         62:4d:92:68:d5:af:06:9f:60:0f:8e:c6:b4:70:8e:b2:bd:d8:
         cd:bf:60:07:56:c8:82:32:21:e0:a7:8a:47:2c:75:b8:cc:ec:
         9a:ca:48:32
-----BEGIN CERTIFICATE-----
MIIDwTCCAqmgAwIBAgICEAAwDQYJKoZIhvcNAQEFBQAwRjELMAkGA1UEBhMCVVMx
EjAQBgNVBAoTCWJhcGxjLmNvbTEjMCEGA1UEAxMacmhldmVuZ2luZS5iYXBsYy5j
b20uMzM4NjMwIhcRMTMxMTI1MTM1MDM2KzAwMDAXDTIzMTEyNDEzNTAzNlowRjEL
MAkGA1UEBhMCVVMxEjAQBgNVBAoTCWJhcGxjLmNvbTEjMCEGA1UEAxMacmhldmVu
Z2luZS5iYXBsYy5jb20uMzM4NjMwggEiMA0GCSqGSIb3DQEBAQUAA4IBDwAwggEK
AoIBAQCTf9+hC45ISMnEFKv7BIdhRPxNaYIHJ1gBNjAhSPRr3zUAslXTmOmPyCro
mHAAmz/GZ3UHP3sgk8AVDpLS68nD/9zkM+d566kuQrxGUOSryxGxEdU1hFqrRvMp
kRYWnq2E82h/bU/WYEWDfPVz9lLFIQcrpL+U7xYx21ZD8ORZ+72v84yihvMMoxDX
GKuYnJiu3uVaM17LfOTCbHJx17YskiJU10Dh+6zGiGPS8dMAcSpfzXU53TZTIcEA
7vnTDsygLIylF3AjEWWB5xtCoNTLDG42Cs/NdnqjyENfBs/btMrziB8NVuJ+yjrH
262jBf6dETXbWHhvwhdkk4J2cs1XAgMBAAGjgbQwgbEwHQYDVR0OBBYEFKw8JSXR
kAITI0KbIJleD9hgZUTaMG8GA1UdIwRoMGaAFKw8JSXRkAITI0KbIJleD9hgZUTa
oUqkSDBGMQswCQYDVQQGEwJVUzESMBAGA1UEChMJYmFwbGMuY29tMSMwIQYDVQQD
ExpyaGV2ZW5naW5lLmJhcGxjLmNvbS4zMzg2M4ICEAAwDwYDVR0TAQH/BAUwAwEB
/zAOBgNVHQ8BAf8EBAMCAQYwDQYJKoZIhvcNAQEFBQADggEBADvpId8aEHo2ZhBi
Liwg1Geq3OrYYv/o5Kyuoe0LtyPBadNMo1FRsFvS4YH79Ar3PyfSSNGjT9nJHCcm
Dhbxdm+J0tabP/OMUIQkPLTlW38Ygd1QHB+hO5YPr75V1FvieBk0no+kFI9WVX9+
5fUj0JyuJ30lVHB0YaAkUlGZ4ElMDjMvBYmmjUNGO6qLQJ9oFY+WlYH9dLN29/ZR
nwTOk+bVVeNBzAi7QnF4fSzNX9EU7zmxJz4i2D9qfPiHSgErCx42rVrYwMWcdh69
3/9MhN5yFJ1ShHniZ2JNkmjVrwafYA+OxrRwjrK92M2/YAdWyIIyIeCnikcsdbjM
7JrKSDI=
-----END CERTIFICATE-----
