Certificate:
    Data:
        Version: 3 (0x2)
        Serial Number: 5 (0x5)
        Signature Algorithm: sha1WithRSAEncryption
        Issuer: C=US, O=British Airways, CN=CA-rhevm.baplc.com.70290
        Validity
            Not Before: Sep 10 14:02:44 2012
            Not After : Sep  9 13:02:45 2022 GMT
        Subject: C=US, O=British Airways, CN=CA-rhevm.baplc.com.70290
        Subject Public Key Info:
            Public Key Algorithm: rsaEncryption
                Public-Key: (1024 bit)
                Modulus:
                    00:a8:c0:47:99:98:f9:62:d5:3e:ff:77:f2:7c:25:
                    45:11:9b:46:0d:2f:59:c7:d8:6a:15:74:c7:95:a1:
                    4c:96:9a:6e:2b:f4:e4:e9:33:22:a3:ca:94:a0:59:
                    77:b9:22:04:3b:ae:45:ea:9a:05:f7:7a:61:a5:00:
                    f4:33:8e:98:80:d1:58:56:bf:e7:8b:5a:6d:20:0f:
                    7a:61:fd:55:bb:c1:37:6f:e5:25:0e:1b:0f:0e:2d:
                    bc:c3:86:37:47:f3:51:22:a2:4c:bd:42:f0:13:27:
                    2d:8b:c5:3a:54:b6:39:30:d3:5e:71:39:62:e7:da:
                    0e:e4:99:70:df:f9:da:9d:a7
                Exponent: 65537 (0x10001)
        X509v3 extensions:
            X509v3 Subject Key Identifier: 
                CA:A0:6B:BD:25:CE:95:C9:45:30:DB:74:0E:A6:7D:49:9F:4F:8E:F6
            Authority Information Access: 
                CA Issuers - URI:http://rhevm.baplc.com:8080/ca.crt

            X509v3 Authority Key Identifier: 
                keyid:CA:A0:6B:BD:25:CE:95:C9:45:30:DB:74:0E:A6:7D:49:9F:4F:8E:F6
                DirName:/C=US/O=British Airways/CN=CA-rhevm.baplc.com.70290
                serial:05

            X509v3 Basic Constraints: critical
                CA:TRUE
            X509v3 Key Usage: critical
                Certificate Sign, CRL Sign
    Signature Algorithm: sha1WithRSAEncryption
        40:ba:41:86:ef:57:d8:97:db:f5:28:a6:15:f0:b8:6f:f0:1f:
        f7:52:b0:08:bc:ef:bc:0f:1f:b2:d0:51:63:7b:b7:94:cc:7f:
        f0:15:5d:9a:b2:d1:e6:56:ba:1f:44:34:e9:d3:c1:e2:ec:45:
        98:8c:b5:8d:56:04:ac:cf:06:d8:3c:a4:cd:c6:16:c3:03:2f:
        6d:d2:47:cc:88:10:36:07:06:b6:cd:14:b8:fa:15:25:fe:28:
        15:e5:12:38:c8:d5:ac:b6:5f:e9:e9:fc:ee:16:f1:46:ee:78:
        1f:b5:65:19:c9:eb:dd:9f:62:f7:c1:2e:7a:55:de:f4:c7:08:
        71:5e
-----BEGIN CERTIFICATE-----
MIIDBjCCAm+gAwIBAgIBBTANBgkqhkiG9w0BAQUFADBKMQswCQYDVQQGEwJVUzEY
MBYGA1UEChMPQnJpdGlzaCBBaXJ3YXlzMSEwHwYDVQQDExhDQS1yaGV2bS5iYXBs
Yy5jb20uNzAyOTAwIhcRMTIwOTEwMTQwMjQ0KzAwMDAXDTIyMDkwOTEzMDI0NVow
SjELMAkGA1UEBhMCVVMxGDAWBgNVBAoTD0JyaXRpc2ggQWlyd2F5czEhMB8GA1UE
AxMYQ0Etcmhldm0uYmFwbGMuY29tLjcwMjkwMIGfMA0GCSqGSIb3DQEBAQUAA4GN
ADCBiQKBgQCowEeZmPli1T7/d/J8JUURm0YNL1nH2GoVdMeVoUyWmm4r9OTpMyKj
ypSgWXe5IgQ7rkXqmgX3emGlAPQzjpiA0VhWv+eLWm0gD3ph/VW7wTdv5SUOGw8O
LbzDhjdH81Eioky9QvATJy2LxTpUtjkw015xOWLn2g7kmXDf+dqdpwIDAQABo4H3
MIH0MB0GA1UdDgQWBBTKoGu9Jc6VyUUw23QOpn1Jn0+O9jA+BggrBgEFBQcBAQQy
MDAwLgYIKwYBBQUHMAKGImh0dHA6Ly9yaGV2bS5iYXBsYy5jb206ODA4MC9jYS5j
cnQwcgYDVR0jBGswaYAUyqBrvSXOlclFMNt0DqZ9SZ9PjvahTqRMMEoxCzAJBgNV
BAYTAlVTMRgwFgYDVQQKEw9Ccml0aXNoIEFpcndheXMxITAfBgNVBAMTGENBLXJo
ZXZtLmJhcGxjLmNvbS43MDI5MIIBBTAPBgNVHRMBAf8EBTADAQH/MA4GA1UdDwEB
/wQEAwIBBjANBgkqhkiG9w0BAQUFAAOBgQBAukGG71fYl9v1KKYV8Lhv8B/3UrAI
vO+8Dx+y0FFje7eUzH/wFV2astHmVrofRDTp08Hi7EWYjLWNVgSszwbYPKTNxhbD
Ay9t0kfMiBA2Bwa2zRS4+hUl/igV5RI4yNWstl/p6fzuFvFG7ngftWUZyevdn2L3
wS56Vd70xwhxXg==
-----END CERTIFICATE-----
